; ModuleID = 'bench/hdf5/original/H5Ounknown.c.ll'
source_filename = "bench/hdf5/original/H5Ounknown.c.ll"
target datalayout = "e-m:e-p270:32:32-p271:32:32-p272:64:64-i64:64-i128:128-f80:128-n8:16:32:64-S128"
target triple = "x86_64-pc-linux-gnu"

%struct.H5O_msg_class_t = type { i32, ptr, i64, i32, ptr, ptr, ptr, ptr, ptr, ptr, ptr, ptr, ptr, ptr, ptr, ptr, ptr, ptr, ptr, ptr }
%struct.H5FL_reg_head_t = type { i8, i32, i32, ptr, i64, ptr }

@.str = private unnamed_addr constant [8 x i8] c"unknown\00", align 1
@H5O_MSG_UNKNOWN = local_unnamed_addr constant [1 x %struct.H5O_msg_class_t] [%struct.H5O_msg_class_t { i32 25, ptr @.str, i64 0, i32 0, ptr null, ptr null, ptr null, ptr null, ptr null, ptr @H5O__unknown_free, ptr null, ptr null, ptr null, ptr null, ptr null, ptr null, ptr null, ptr null, ptr null, ptr null }], align 16
@.str.1 = private unnamed_addr constant [14 x i8] c"H5O_unknown_t\00", align 1
@H5_H5O_unknown_t_reg_free_list = global %struct.H5FL_reg_head_t { i8 0, i32 0, i32 0, ptr @.str.1, i64 4, ptr null }, align 8

; Function Attrs: nounwind uwtable
define internal noundef i32 @H5O__unknown_free(ptr noundef %0) #0 {
  %2 = tail call ptr @H5FL_reg_free(ptr noundef nonnull @H5_H5O_unknown_t_reg_free_list, ptr noundef %0) #2
  ret i32 0
}

declare ptr @H5FL_reg_free(ptr noundef, ptr noundef) local_unnamed_addr #1


!llvm.module.flags = !{!0, !1, !2, !3}

!0 = !{i32 1, !"wchar_size", i32 4}
!1 = !{i32 8, !"PIC Level", i32 2}
!2 = !{i32 7, !"uwtable", i32 2}
!3 = !{i32 7, !"frame-pointer", i32 2}
